target datalayout = "e-m:e-p270:32:32-p271:32:32-p272:64:64-i64:64-i128:128-f80:128-n8:16:32:64-S128"
target triple = "x86_64-pc-linux-gnu"

%class.QString = type { ptr }
%class.RichParameter = type { ptr, %class.QString, ptr, %class.QString, %class.QString, i8, i8, %class.QString }

; Function Attrs: mustprogress uwtable
define noundef zeroext i1 @_ZN10RichStringeqERK13RichParameter(ptr noundef nonnull align 8 dereferenceable(56) %0, ptr noundef nonnull align 8 dereferenceable(56) %1) unnamed_addr #2 align 2 personality ptr @__gxx_personality_v0 {
  %3 = alloca i1, align 1
  %4 = alloca ptr, align 8
  %5 = alloca ptr, align 8
  %6 = alloca %class.QString, align 8
  %7 = alloca i1, align 1
  %8 = alloca %class.QString, align 8
  %9 = alloca ptr, align 8
  %10 = alloca i32, align 4
  %11 = alloca i1, align 1
  store ptr %0, ptr %4, align 8
  store ptr %1, ptr %5, align 8
  %12 = load ptr, ptr %4, align 8
  %13 = load ptr, ptr %5, align 8
  %14 = call noundef nonnull align 8 dereferenceable(8) ptr @_ZNK13RichParameter5valueEv(ptr noundef nonnull align 8 dereferenceable(56) %13)
  %15 = load ptr, ptr %14, align 8
  %16 = getelementptr inbounds ptr, ptr %15, i64 13
  %17 = load ptr, ptr %16, align 8
  %18 = call noundef zeroext i1 %17(ptr noundef nonnull align 8 dereferenceable(8) %14)
  store i1 false, ptr %7, align 1
  store i1 false, ptr %11, align 1
  br i1 %18, label %19, label %37

19:                                               ; preds = %2
  %20 = getelementptr inbounds %class.RichParameter, ptr %12, i32 0, i32 1
  %21 = load ptr, ptr %5, align 8
  %22 = call noundef nonnull align 8 dereferenceable(8) ptr @_ZNK13RichParameter4nameEv(ptr noundef nonnull align 8 dereferenceable(56) %21)
  %23 = call noundef zeroext i1 @_ZeqRK7QStringS1_(ptr noundef nonnull align 8 dereferenceable(8) %20, ptr noundef nonnull align 8 dereferenceable(8) %22) #5
  br i1 %23, label %24, label %37

24:                                               ; preds = %19
  %25 = call noundef nonnull align 8 dereferenceable(8) ptr @_ZNK13RichParameter5valueEv(ptr noundef nonnull align 8 dereferenceable(56) %12)
  %26 = load ptr, ptr %25, align 8
  %27 = getelementptr inbounds ptr, ptr %26, i64 5
  %28 = load ptr, ptr %27, align 8
  call void %28(ptr dead_on_unwind writable sret(%class.QString) align 8 %6, ptr noundef nonnull align 8 dereferenceable(8) %25)
  store i1 true, ptr %7, align 1
  %29 = load ptr, ptr %5, align 8
  %30 = invoke noundef nonnull align 8 dereferenceable(8) ptr @_ZNK13RichParameter5valueEv(ptr noundef nonnull align 8 dereferenceable(56) %29)
          to label %31 unwind label %46

31:                                               ; preds = %24
  %32 = load ptr, ptr %30, align 8
  %33 = getelementptr inbounds ptr, ptr %32, i64 5
  %34 = load ptr, ptr %33, align 8
  invoke void %34(ptr dead_on_unwind writable sret(%class.QString) align 8 %8, ptr noundef nonnull align 8 dereferenceable(8) %30)
          to label %35 unwind label %46

35:                                               ; preds = %31
  store i1 true, ptr %11, align 1
  %36 = call noundef zeroext i1 @_ZeqRK7QStringS1_(ptr noundef nonnull align 8 dereferenceable(8) %6, ptr noundef nonnull align 8 dereferenceable(8) %8) #5
  br label %37

37:                                               ; preds = %35, %19, %2
  %38 = phi i1 [ false, %19 ], [ false, %2 ], [ %36, %35 ]
  store i1 %38, ptr %3, align 1
  %39 = load i1, ptr %11, align 1
  br i1 %39, label %40, label %41

40:                                               ; preds = %37
  call void @_ZN7QStringD2Ev(ptr noundef nonnull align 8 dereferenceable(8) %8) #5
  br label %41

41:                                               ; preds = %40, %37
  %42 = load i1, ptr %7, align 1
  br i1 %42, label %43, label %44

43:                                               ; preds = %41
  call void @_ZN7QStringD2Ev(ptr noundef nonnull align 8 dereferenceable(8) %6) #5
  br label %44

44:                                               ; preds = %43, %41
  %45 = load i1, ptr %3, align 1
  ret i1 %45

46:                                               ; preds = %31, %24
  %47 = landingpad { ptr, i32 }
          cleanup
  %48 = extractvalue { ptr, i32 } %47, 0
  store ptr %48, ptr %9, align 8
  %49 = extractvalue { ptr, i32 } %47, 1
  store i32 %49, ptr %10, align 4
  %50 = load i1, ptr %7, align 1
  br i1 %50, label %51, label %52

51:                                               ; preds = %46
  call void @_ZN7QStringD2Ev(ptr noundef nonnull align 8 dereferenceable(8) %6) #5
  br label %52

52:                                               ; preds = %51, %46
  br label %53

53:                                               ; preds = %52
  %54 = load ptr, ptr %9, align 8
  %55 = load i32, ptr %10, align 4
  %56 = insertvalue { ptr, i32 } poison, ptr %54, 0
  %57 = insertvalue { ptr, i32 } %56, i32 %55, 1
  resume { ptr, i32 } %57
}